target datalayout = "e-m:e-p270:32:32-p271:32:32-p272:64:64-i64:64-i128:128-f80:128-n8:16:32:64-S128"
target triple = "x86_64-pc-linux-gnu"

%struct.AVRational = type { i32, i32 }
%struct.MXFMetadataSet = type { [16 x i8], i64 }
%struct.AVTimecode = type { i32, i32, %struct.AVRational, i32 }
%struct.MXFTimecodeComponent = type { %struct.MXFMetadataSet, i32, i32, %struct.AVRational, %struct.AVTimecode }

; Function Attrs: nounwind uwtable
define internal i32 @mxf_read_timecode_component(ptr noundef %0, ptr noundef %1, i32 noundef %2, i32 noundef %3, ptr noundef %4, i64 noundef %5) #0 {
  %7 = alloca ptr, align 8
  %8 = alloca ptr, align 8
  %9 = alloca i32, align 4
  %10 = alloca i32, align 4
  %11 = alloca ptr, align 8
  %12 = alloca i64, align 8
  %13 = alloca ptr, align 8
  %14 = alloca %struct.AVRational, align 4
  store ptr %0, ptr %7, align 8, !tbaa !90
  store ptr %1, ptr %8, align 8, !tbaa !138
  store i32 %2, ptr %9, align 4, !tbaa !47
  store i32 %3, ptr %10, align 4, !tbaa !47
  store ptr %4, ptr %11, align 8, !tbaa !13
  store i64 %5, ptr %12, align 8, !tbaa !37
  call void @llvm.lifetime.start.p0(i64 8, ptr %13) #13
  %15 = load ptr, ptr %7, align 8, !tbaa !90
  store ptr %15, ptr %13, align 8, !tbaa !158
  %16 = load i32, ptr %9, align 4, !tbaa !47
  switch i32 %16, label %35 [
    i32 5377, label %17
    i32 5378, label %23
    i32 5379, label %30
  ]

17:                                               ; preds = %6
  %18 = load ptr, ptr %8, align 8, !tbaa !138
  %19 = call i64 @avio_rb64(ptr noundef %18)
  %20 = trunc i64 %19 to i32
  %21 = load ptr, ptr %13, align 8, !tbaa !158
  %22 = getelementptr inbounds nuw %struct.MXFTimecodeComponent, ptr %21, i32 0, i32 2
  store i32 %20, ptr %22, align 4, !tbaa !166
  br label %35

23:                                               ; preds = %6
  %24 = load ptr, ptr %13, align 8, !tbaa !158
  %25 = getelementptr inbounds nuw %struct.MXFTimecodeComponent, ptr %24, i32 0, i32 3
  %26 = getelementptr inbounds nuw %struct.AVRational, ptr %14, i32 0, i32 0
  %27 = load ptr, ptr %8, align 8, !tbaa !138
  %28 = call i32 @avio_rb16(ptr noundef %27)
  store i32 %28, ptr %26, align 4, !tbaa !200
  %29 = getelementptr inbounds nuw %struct.AVRational, ptr %14, i32 0, i32 1
  store i32 1, ptr %29, align 4, !tbaa !201
  call void @llvm.memcpy.p0.p0.i64(ptr align 8 %25, ptr align 4 %14, i64 8, i1 false), !tbaa.struct !202
  br label %35

30:                                               ; preds = %6
  %31 = load ptr, ptr %8, align 8, !tbaa !138
  %32 = call i32 @avio_r8(ptr noundef %31)
  %33 = load ptr, ptr %13, align 8, !tbaa !158
  %34 = getelementptr inbounds nuw %struct.MXFTimecodeComponent, ptr %33, i32 0, i32 1
  store i32 %32, ptr %34, align 8, !tbaa !163
  br label %35

35:                                               ; preds = %6, %30, %23, %17
  call void @llvm.lifetime.end.p0(i64 8, ptr %13) #13
  ret i32 0
}