; Function Attrs: nounwind uwtable
define internal noundef i32 @mxf_read_timecode_component(ptr noundef writeonly captures(none) %0, ptr noundef %1, i32 noundef %2, i32 %3, ptr readnone captures(none) %4, i64 %5) #1 {
  switch i32 %2, label %17 [
    i32 5377, label %7
    i32 5378, label %11
    i32 5379, label %14
  ]

7:                                                ; preds = %6
  %8 = tail call i64 @avio_rb64(ptr noundef %1) #15
  %9 = trunc i64 %8 to i32
  %10 = getelementptr inbounds nuw i8, ptr %0, i64 28
  store i32 %9, ptr %10, align 4, !tbaa !86
  br label %17

11:                                               ; preds = %6
  %12 = getelementptr inbounds nuw i8, ptr %0, i64 32
  %13 = tail call i32 @avio_rb16(ptr noundef %1) #15
  store i32 %13, ptr %12, align 8, !tbaa !142
  %.sroa.2.0..sroa_idx = getelementptr inbounds nuw i8, ptr %0, i64 36
  store i32 1, ptr %.sroa.2.0..sroa_idx, align 4, !tbaa !142
  br label %17

14:                                               ; preds = %6
  %15 = tail call i32 @avio_r8(ptr noundef %1) #15
  %16 = getelementptr inbounds nuw i8, ptr %0, i64 24
  store i32 %15, ptr %16, align 8, !tbaa !82
  br label %17

17:                                               ; preds = %14, %11, %7, %6
  ret i32 0
}